-----BEGIN RSA PRIVATE KEY-----
Proc-Type: 4,ENCRYPTED
DEK-Info: DES-EDE3-CBC,E19C13A5100D07FA

TrKHN8ALsvQMEwEZHFd5l2D72v4QguosLEZNerBUHtOAlTrvAqV8fDtwzLxODJZv
lkKIoCpgOFUrQ1oouj1HGno/LVRn8XY769RrOvtPwhl2tC6NrbOwDh6zumDo1YFD
jjH0Vpqt1VAFj76kXwbxwvw5aW+IJ0MUzjcqiO8q0D+c2sm+kfInfDwurDcscaS7
rdSQdaDPZA4nlF2Prb5uxGqm/AoCqXO1uzQ4pbh+bYNIckE9x+fTXMdOESLKO4M9
loruKpc7vlN1/IbGiB4CH3+8QKdltaUnceUQ3nSvr+lVqNew+K1rei/FaQXuO+LS
Ryxf+nji+2TWuR5C+Rxur+jk2R+qNo/LLxdkiqLoyzsMOdHJ60eAzmVVd7zZG4So
GQMKR6cQwWejUBeHV7djzuPXr/4NofbUBZHDTDHJH5VsEMFXU1c0AABaNRzXDhXd
/qBuCBUo+rwUNkSZgA7A5v86cz+ufVotW9aqE3wrUgPrxXsoM1NscSxYEwFuRiWX
7uiAOwSSHoSzQ+wb0cGZUvwihrpFZt85lPKDkO51f8WgKdwre80INRuiki3A3/Fb
w2OeSce2KgZaOQbdMJrOsgftpjbOLYrrYIoZ4Rztk4KrRwER2/GJzESAY2cdCs7L
Aeme7xAY/OF3ggMtWKDDnYgpmM5tZ8bPXbNlcGvLQGZpUHX9PO1X8A10ctMG56v+
5aAw4w5YwSVJ4KPnIEj/A6YJW6JrFSF6/OaxYB+irQC7SwTVYkMG4sd73Occw/nb
4kVwlO1BlUyLXY4ikcDtTVoMpoydde3R4q3ewZ1KBf7GiSCgTKv/tf9mkesLEfTL
UXXEiznEPG7m67okV486dAb5W1luF7Yck04P5DepVfmG9Kp1tkOpIjPjmA+M5bKL
g3PmN7yaOkGVUveYGaoeHquWOGeJ/ETCmjBNHYAZ/kGiIM8Vnne9sAWIZidLnBgO
5r5nlxFjFCn/9diOB/zI5RBve0FXs3PHXE/FuRKaJ1T09Ifl8eBLFMN7X3UaA/jh
NjcGLHODwFNE0IRhdiNX+U7TYx88Z1sqeakLGyOpjk4l4MBne64aQm2PezdXVdo/
4ufSUXxr7kzQWRkwW9VCnzW4OLuwoobK6gRxb0kNZEFbPBnUsqNmFQ2oSidtMVND
Izs1tL1/07e1qURyvKJYk/OH/J/hM0O9IYd45ntLR4ahEb8DHiIpUm5ac9SA5QOE
vs040OnYeuRKG1wPhDcWnKRrJO4HKYIHlZ3XeYVoimitOixsGL14alfDQjFtIQWa
B/SU6+97+g25W0Gs+Ixa3iPRMWlgYHXunCrTtMnHejASxvMVplf28MPLcTytm4rz
lIbVqxpyhhK9cUeUvle1QPA4fg1f4eLoq00f6SP/SJ8J1aBy7dR5Ct/ajk5MYWsC
KHn1BvxKlxaMe+EF74vb5HLtZYFbpCQThESKHI2i6pxkvJpsv96YtFRRZMLHEK/y
aEBZYEL+ief8XkslpNUayMr1zXB+vEpHoAITb63gBbrctS0qOZC85JlTdA/c59Nw
pwuJBPmuDi0ACDjcWAPrrOY0X5rKr43ohsac1FtCP9+aer1HzedWlg==
-----END RSA PRIVATE KEY-----
Certificate:
    Data:
        Version: 3 (0x2)
        Serial Number: 4096 (0x1000)
        Signature Algorithm: sha256WithRSAEncryption
        Issuer: C=BD, ST=Dhaka, L=Dhaka, O=Dhaka University, OU=CSE, CN=idp.du.com/emailAddress=mesbah.csesust@gmail.com
        Validity
            Not Before: May 30 17:08:45 2022 GMT
            Not After : May 30 17:08:45 2023 GMT
        Subject: C=BD, ST=Dhaka, O=Dhaka University, OU=CSE, CN=idp.du.com/emailAddress=mesbah.csesust@gmail.com
        Subject Public Key Info:
            Public Key Algorithm: rsaEncryption
                RSA Public-Key: (2048 bit)
                Modulus:
                    00:c7:ca:30:09:b9:44:61:34:86:6f:7a:8e:1a:d1:
                    7d:a2:0d:56:12:0e:34:f3:c3:45:30:47:91:c9:c6:
                    c9:63:af:f0:28:ba:11:bd:aa:5f:bd:6a:10:f2:fe:
                    67:74:20:68:54:fe:dd:94:48:6e:5a:d3:37:7c:de:
                    2f:1c:8e:a9:d0:27:a4:00:75:b4:6e:60:05:7b:69:
                    0f:42:af:b2:80:ba:b6:32:f6:20:a1:65:e8:ab:0e:
                    13:83:a8:f3:ba:30:ed:18:53:20:ef:7c:85:55:68:
                    49:e3:86:1d:70:19:ab:7b:88:e6:87:86:43:2d:a8:
                    61:13:20:ea:d4:51:e1:bc:bb:fc:f1:21:de:c5:d8:
                    56:1f:c9:45:32:a5:86:0b:79:48:2f:35:ad:cd:40:
                    9e:6f:c8:e1:73:af:74:c2:81:6d:7d:15:b0:f6:83:
                    eb:9b:82:12:16:2c:d0:f3:a1:46:98:03:61:3f:87:
                    44:4a:08:c6:10:97:a4:6a:57:f3:b2:13:00:1f:71:
                    d8:d6:9c:79:a2:c2:a1:fa:cc:28:de:6c:aa:b4:33:
                    e9:bd:94:b1:a0:9c:d4:34:91:6d:8d:49:70:07:d0:
                    35:26:0a:0b:28:86:fa:66:d7:60:c0:5b:6b:95:13:
                    90:36:0d:36:40:8d:16:19:1d:42:55:de:5c:ba:23:
                    db:d5
                Exponent: 65537 (0x10001)
        X509v3 extensions:
            X509v3 Basic Constraints: 
                CA:FALSE
            Netscape Comment: 
                OpenSSL Generated Certificate
            X509v3 Subject Key Identifier: 
                48:5E:3D:89:0F:FA:6F:3D:B9:66:30:2A:81:1B:E1:FB:24:46:15:6D
            X509v3 Authority Key Identifier: 
                keyid:CD:67:20:8A:38:7E:AC:67:BA:4C:09:76:0F:5B:6F:F6:3E:21:93:CD

    Signature Algorithm: sha256WithRSAEncryption
         76:a1:ba:1f:40:b6:78:05:ab:50:ff:96:87:26:53:fb:f8:72:
         a0:2b:0a:3f:84:37:41:bc:21:e3:2c:fd:06:9b:b1:25:9c:6c:
         2e:62:1c:3d:a9:0e:51:ed:88:b6:8d:5f:ca:6a:94:91:61:26:
         98:fb:23:f9:b1:8f:71:d1:0f:30:0d:33:86:e4:ba:e5:df:a3:
         5d:bd:96:cb:fa:6f:ec:8b:b4:67:77:05:cb:da:e6:6c:c8:45:
         55:06:7e:f0:dc:15:67:f2:4d:14:4e:de:de:0e:a4:81:2e:6a:
         b2:69:4e:ff:d3:b3:ac:c5:56:e5:b5:ae:6e:06:13:ca:56:f4:
         30:20:af:43:a0:92:3c:e6:b5:c2:d7:ec:09:60:bf:76:72:f0:
         be:b7:df:a0:ef:ab:cc:cb:2f:f6:ef:e9:b3:71:cd:de:68:ef:
         45:9d:7c:c2:d6:1f:a5:4a:4b:5f:32:98:09:af:bc:3e:5f:48:
         8c:10:6b:82:5d:47:f7:c1:7e:93:6d:86:d5:f9:65:eb:e0:09:
         46:46:66:8d:94:7d:89:36:90:1c:62:29:d7:27:aa:08:8f:47:
         c7:ae:ce:ee:94:63:10:c9:46:01:7d:88:77:72:55:91:94:54:
         be:37:5e:ab:43:f6:95:fe:fe:58:8d:c9:37:de:95:5b:4a:2d:
         32:80:be:a7
-----BEGIN CERTIFICATE-----
MIIEETCCAvmgAwIBAgICEAAwDQYJKoZIhvcNAQELBQAwgZQxCzAJBgNVBAYTAkJE
MQ4wDAYDVQQIDAVEaGFrYTEOMAwGA1UEBwwFRGhha2ExGTAXBgNVBAoMEERoYWth
IFVuaXZlcnNpdHkxDDAKBgNVBAsMA0NTRTETMBEGA1UEAwwKaWRwLmR1LmNvbTEn
MCUGCSqGSIb3DQEJARYYbWVzYmFoLmNzZXN1c3RAZ21haWwuY29tMB4XDTIyMDUz
MDE3MDg0NVoXDTIzMDUzMDE3MDg0NVowgYQxCzAJBgNVBAYTAkJEMQ4wDAYDVQQI
DAVEaGFrYTEZMBcGA1UECgwQRGhha2EgVW5pdmVyc2l0eTEMMAoGA1UECwwDQ1NF
MRMwEQYDVQQDDAppZHAuZHUuY29tMScwJQYJKoZIhvcNAQkBFhhtZXNiYWguY3Nl
c3VzdEBnbWFpbC5jb20wggEiMA0GCSqGSIb3DQEBAQUAA4IBDwAwggEKAoIBAQDH
yjAJuURhNIZveo4a0X2iDVYSDjTzw0UwR5HJxsljr/AouhG9ql+9ahDy/md0IGhU
/t2USG5a0zd83i8cjqnQJ6QAdbRuYAV7aQ9Cr7KAurYy9iChZeirDhODqPO6MO0Y
UyDvfIVVaEnjhh1wGat7iOaHhkMtqGETIOrUUeG8u/zxId7F2FYfyUUypYYLeUgv
Na3NQJ5vyOFzr3TCgW19FbD2g+ubghIWLNDzoUaYA2E/h0RKCMYQl6RqV/OyEwAf
cdjWnHmiwqH6zCjebKq0M+m9lLGgnNQ0kW2NSXAH0DUmCgsohvpm12DAW2uVE5A2
DTZAjRYZHUJV3ly6I9vVAgMBAAGjezB5MAkGA1UdEwQCMAAwLAYJYIZIAYb4QgEN
BB8WHU9wZW5TU0wgR2VuZXJhdGVkIENlcnRpZmljYXRlMB0GA1UdDgQWBBRIXj2J
D/pvPblmMCqBG+H7JEYVbTAfBgNVHSMEGDAWgBTNZyCKOH6sZ7pMCXYPW2/2PiGT
zTANBgkqhkiG9w0BAQsFAAOCAQEAdqG6H0C2eAWrUP+WhyZT+/hyoCsKP4Q3Qbwh
4yz9BpuxJZxsLmIcPakOUe2Ito1fymqUkWEmmPsj+bGPcdEPMA0zhuS65d+jXb2W
y/pv7Iu0Z3cFy9rmbMhFVQZ+8NwVZ/JNFE7e3g6kgS5qsmlO/9OzrMVW5bWubgYT
ylb0MCCvQ6CSPOa1wtfsCWC/dnLwvrffoO+rzMsv9u/ps3HN3mjvRZ18wtYfpUpL
XzKYCa+8Pl9IjBBrgl1H98F+k22G1fll6+AJRkZmjZR9iTaQHGIp1yeqCI9Hx67O
7pRjEMlGAX2Id3JVkZRUvjdeq0P2lf7+WI3JN96VW0otMoC+pw==
-----END CERTIFICATE-----
