-----BEGIN RSA PRIVATE KEY-----
Proc-Type: 4,ENCRYPTED
DEK-Info: DES-EDE3-CBC,AB517010E420EC95

eNQQqivPsUC1s3Y/2mEFyo+a2wnvJLWpA088BI6GHdycR61yytpVrIdB7cKhI1BU
2NjhlIlNh8wPsynh0p42YE7UDzomVSqCLKfPPjC9WpIWHyjLk4Op9rCxhiXV/K2y
WUJx7Tckys1Bpy41Y8CkUdO7vDEq9J33WoGF+zjDzUPioZa87U1MLJF88hpNjOfX
Ige6vVFtw6tacXNYxA5r2nKfvmY2j4eTrXS76jL0PZrupZhbwMBlUrexiI4rhq7r
Lf/jjYh7pTtaR9+1YQIewAGSuJjo5V08iTnHM+BS/wHgTRskKS75lPBg3m1GOlJ/
ROXkmSAoGDj6b+gnZIekz3TRw4INAXHa/0vqZuDw7EVnSZBNIxXanHAALBwoYr4H
JjhujVpHTiNDjqNcW/DZ4Ddp/0ftZA4itWDmYdDfzlrRWXfPmKMIXkNYsiHa9dCA
TuaJ9p4i1WRvwScrETTbOekEMuqXPk2j1C+di08eKQyob2ugZghmxFw1tKlnemvX
KxOssvICdwU9npQ4dvTOLACk2RT4GyVkESpzqKrsv3IpcYehnJplTzD2oN9B1CJL
2ZEEXjDq195+D5UEjDNPCime7mG//zwQJgvm7y/uI9P28Q08bejvZsaJGj16bi97
quvdJe5zLYc81ljLL5VfhA07pswJSZBfB9B4rYCJT0GOPfsATSnotnqUKmEk/gAE
ZATZviDnIrMD55eTLTr232lOhgxKyyXjg5BfEDLS+3D/fsbz+k8iNPE2NZ4+8If9
M3tZk6639T32ZMCDEolMlbnrQaTB72DZGxPT1oKMbgaJcqzC5h2synOVv1/QnkDJ
q/D+SVbXN8z5e5aDbhSDnVvaNBjmCMTXTn5fb2FPnwcv799j9H0aoI69CrjEZMxT
A4gw2DjQwxrnBpQaO4VvrWKwT4VSRw7mucPzhshhXMXixVhn1oGRKIyf7EOL89zB
iQuQIcz6S8rXX1lwqHELhFBp28AYUHnIDdgzzzaCvZ2PksDEDlsF4XS3RDceAEkf
N/BKnz8dIfkVhUT0r26cta8kWJEzqtFsbeQSOVKAwtPoJWWf84Z7siWd6PCk6pkn
f02UISyEU/sbw/MtU7l0G8h2sbNgM+t2KxQTteRg9xhevr3LEB+OpGtuhoG/0cqG
MwSLP6hz1g1KRjP1JRzmWMsD/N3zZ59sdpExZZJxNB/nS2hGRy8jwtcEZ0gL6eFn
UHZOlLfvxCCNpZXgJ9aduGj/sGZ3NTirhh24VpLqr+pjdE4RCfKoUarRPEfvZMhd
nisBUyNkboGXhWMVdiPgJNnBgersK1ka2lT+WGFZTDh8z8pfstSHxowiYRnnGESF
Vf3KW7JJK2kT10OznU95Ndeeet3HWQ6Tye9tJBAWMAKXjoMPIOx6vwXQZp5PDlqY
Ye0MxpHXthnr+P9EXBKXFaZEEnuNgkBAyQVNjU4W+7nrtxcVefFUUbHejQifSYdz
cw4ZWDGkm+ddjq4E4cTLBk0rJi5w5UwuU/tLfgjeaZXC/CIcoH4J/NrwjU/fivD8
wGqzndUDA5uCPyYpkK5GBQhRsIZQCZJNwNRiyvOsrT3Tmo3TLaeLXp2JXJlfwezi
-----END RSA PRIVATE KEY-----
Certificate:
    Data:
        Version: 3 (0x2)
        Serial Number: 4096 (0x1000)
        Signature Algorithm: sha256WithRSAEncryption
        Issuer: C=BD, ST=Dhaka, L=Dhaka, O=Dhaka University, OU=CSE, CN=sp1.du.com/emailAddress=mesbah.csesust@gmail.com
        Validity
            Not Before: May 30 16:54:33 2022 GMT
            Not After : May 30 16:54:33 2023 GMT
        Subject: C=BD, ST=Dhaka, O=Dhaka University, OU=CSE, CN=sp1.du.com/emailAddress=mesbah.csesust@gmail.com
        Subject Public Key Info:
            Public Key Algorithm: rsaEncryption
                RSA Public-Key: (2048 bit)
                Modulus:
                    00:e1:a4:0e:aa:d2:07:b2:81:89:38:b8:c0:ff:97:
                    18:8d:98:c5:50:fa:7d:82:89:a2:94:ab:42:da:d0:
                    43:dc:df:3d:10:8d:11:f3:b6:44:2c:bc:a0:88:37:
                    8b:93:d0:32:42:9b:cb:60:96:c3:85:84:f8:8b:d0:
                    cb:6b:d7:83:5b:50:1f:99:55:f7:13:04:2d:45:a2:
                    e6:18:d3:cb:87:19:73:e3:07:c9:7f:f9:54:58:0b:
                    05:83:85:dc:97:73:08:0a:c1:36:68:85:54:72:48:
                    88:1c:c3:88:c5:78:34:32:ed:66:2f:f0:5e:98:f6:
                    93:29:da:80:8d:49:d3:b6:a9:5b:7e:23:09:b2:87:
                    15:29:e8:0b:aa:48:d1:ea:51:ec:ba:fc:25:73:4a:
                    32:11:67:9e:59:b1:c1:96:46:4e:ce:04:96:c1:bc:
                    ce:a1:4f:d2:a5:05:76:c4:8f:44:6b:26:d4:f5:8d:
                    41:2c:88:b4:cc:c6:1b:0b:77:d3:43:db:4e:a1:58:
                    10:e1:01:04:c2:71:9f:9c:58:0a:c2:4c:8f:38:9f:
                    28:5e:e4:cc:99:4f:58:e3:6b:b8:e0:a8:67:d0:4d:
                    00:e6:ef:56:c1:95:25:a0:23:45:13:13:bb:21:e9:
                    76:d7:e5:9f:bb:55:2a:65:84:db:5a:31:d1:45:29:
                    a3:77
                Exponent: 65537 (0x10001)
        X509v3 extensions:
            X509v3 Basic Constraints: 
                CA:FALSE
            Netscape Comment: 
                OpenSSL Generated Certificate
            X509v3 Subject Key Identifier: 
                72:27:01:B5:39:E9:4A:2B:58:B5:84:F5:B5:2C:C8:E0:8B:94:4E:DE
            X509v3 Authority Key Identifier: 
                keyid:0E:F5:1B:7C:2A:0A:71:4E:C3:1E:7E:56:E0:3C:41:7B:63:00:A5:99

    Signature Algorithm: sha256WithRSAEncryption
         0e:9d:bc:0b:31:6d:86:56:cb:15:ab:59:90:76:93:0e:a8:0a:
         dc:10:6b:a0:27:ad:51:9f:43:84:38:18:7b:f1:b9:96:5a:ed:
         1e:32:6d:38:3a:6c:7a:b2:cf:3f:94:d8:2e:b2:ef:d1:4d:e5:
         b3:da:fb:25:91:72:b7:89:9a:c5:02:22:73:5d:41:ed:bc:09:
         fa:0b:5d:4c:d0:91:27:39:f4:de:e1:23:a5:4e:60:e7:68:ff:
         76:11:b3:29:8b:9c:fb:04:14:f4:ac:47:6f:a8:cd:c3:0b:ae:
         9e:17:4e:a3:0d:ee:2a:43:15:a3:5e:e8:00:8f:b3:de:22:1f:
         ce:84:1a:f5:93:46:85:63:d3:f1:ce:d6:5d:4e:fb:e6:2b:d6:
         9d:e1:f6:37:0b:96:21:08:da:51:ad:38:f2:ba:6a:6e:47:59:
         57:3a:2b:97:8b:36:94:2a:45:30:60:b7:f9:da:18:3b:13:db:
         f7:f2:f8:5c:a5:3c:96:1e:4a:de:db:26:d0:19:93:db:ad:0a:
         ca:c8:a2:a6:94:ef:ae:9a:bb:ae:42:7b:e6:fc:59:0c:f5:41:
         c1:d5:00:ec:d1:1b:24:cf:79:9d:a2:a2:50:68:69:64:59:24:
         1d:e4:c4:1e:2b:5f:dc:1f:53:2e:e4:0d:ba:55:7c:25:8e:c8:
         8b:bc:ba:cc
-----BEGIN CERTIFICATE-----
MIIEETCCAvmgAwIBAgICEAAwDQYJKoZIhvcNAQELBQAwgZQxCzAJBgNVBAYTAkJE
MQ4wDAYDVQQIDAVEaGFrYTEOMAwGA1UEBwwFRGhha2ExGTAXBgNVBAoMEERoYWth
IFVuaXZlcnNpdHkxDDAKBgNVBAsMA0NTRTETMBEGA1UEAwwKc3AxLmR1LmNvbTEn
MCUGCSqGSIb3DQEJARYYbWVzYmFoLmNzZXN1c3RAZ21haWwuY29tMB4XDTIyMDUz
MDE2NTQzM1oXDTIzMDUzMDE2NTQzM1owgYQxCzAJBgNVBAYTAkJEMQ4wDAYDVQQI
DAVEaGFrYTEZMBcGA1UECgwQRGhha2EgVW5pdmVyc2l0eTEMMAoGA1UECwwDQ1NF
MRMwEQYDVQQDDApzcDEuZHUuY29tMScwJQYJKoZIhvcNAQkBFhhtZXNiYWguY3Nl
c3VzdEBnbWFpbC5jb20wggEiMA0GCSqGSIb3DQEBAQUAA4IBDwAwggEKAoIBAQDh
pA6q0geygYk4uMD/lxiNmMVQ+n2CiaKUq0La0EPc3z0QjRHztkQsvKCIN4uT0DJC
m8tglsOFhPiL0Mtr14NbUB+ZVfcTBC1FouYY08uHGXPjB8l/+VRYCwWDhdyXcwgK
wTZohVRySIgcw4jFeDQy7WYv8F6Y9pMp2oCNSdO2qVt+IwmyhxUp6AuqSNHqUey6
/CVzSjIRZ55ZscGWRk7OBJbBvM6hT9KlBXbEj0RrJtT1jUEsiLTMxhsLd9ND206h
WBDhAQTCcZ+cWArCTI84nyhe5MyZT1jja7jgqGfQTQDm71bBlSWgI0UTE7sh6XbX
5Z+7VSplhNtaMdFFKaN3AgMBAAGjezB5MAkGA1UdEwQCMAAwLAYJYIZIAYb4QgEN
BB8WHU9wZW5TU0wgR2VuZXJhdGVkIENlcnRpZmljYXRlMB0GA1UdDgQWBBRyJwG1
OelKK1i1hPW1LMjgi5RO3jAfBgNVHSMEGDAWgBQO9Rt8KgpxTsMeflbgPEF7YwCl
mTANBgkqhkiG9w0BAQsFAAOCAQEADp28CzFthlbLFatZkHaTDqgK3BBroCetUZ9D
hDgYe/G5llrtHjJtODpserLPP5TYLrLv0U3ls9r7JZFyt4maxQIic11B7bwJ+gtd
TNCRJzn03uEjpU5g52j/dhGzKYuc+wQU9KxHb6jNwwuunhdOow3uKkMVo17oAI+z
3iIfzoQa9ZNGhWPT8c7WXU775ivWneH2NwuWIQjaUa048rpqbkdZVzorl4s2lCpF
MGC3+doYOxPb9/L4XKU8lh5K3tsm0BmT260KysiippTvrpq7rkJ75vxZDPVBwdUA
7NEbJM95naKiUGhpZFkkHeTEHitf3B9TLuQNulV8JY7Ii7y6zA==
-----END CERTIFICATE-----
