Certificate:
    Data:
        Version: 3 (0x2)
        Serial Number: 4096 (0x1000)
        Signature Algorithm: sha256WithRSAEncryption
        Issuer: C=BD, ST=Dhaka, L=Dhaka, O=Dhaka University, OU=CSE, CN=service.du.com/emailAddress=mesbah.csesust@gmail.com
        Validity
            Not Before: Jun 20 06:42:13 2022 GMT
            Not After : Jun 20 06:42:13 2023 GMT
        Subject: C=BD, ST=Dhaka, O=Dhaka University, OU=CSE, CN=service.du.com/emailAddress=mesbah.csesust@gmail.com
        Subject Public Key Info:
            Public Key Algorithm: rsaEncryption
                RSA Public-Key: (2048 bit)
                Modulus:
                    00:d2:13:ad:09:b2:17:c6:a7:89:3c:62:d9:7e:42:
                    3a:9f:58:51:fc:a5:9a:61:4a:4f:7d:59:ad:cf:41:
                    43:d8:d7:f9:2c:9a:38:b4:5c:70:72:de:78:52:3d:
                    45:79:98:0a:7d:22:d1:25:c5:18:fb:6a:f8:e9:84:
                    c0:59:50:87:de:e9:31:1f:ed:01:b5:83:97:fd:9f:
                    90:67:eb:5d:3f:52:75:c8:6d:37:84:72:50:41:5c:
                    a5:4b:63:8e:20:b0:42:62:7e:85:3d:12:bd:00:bf:
                    50:f3:ff:aa:dc:c3:2a:1b:18:ae:a1:f2:74:e5:44:
                    4d:19:0f:aa:f7:8a:0a:22:ae:81:73:98:5d:73:05:
                    4e:98:3a:02:09:53:11:56:2b:8d:31:f1:cc:cc:69:
                    d9:1b:8d:f3:3a:f3:e8:ed:59:4a:9b:2f:a2:73:ad:
                    a8:65:6c:29:43:83:9a:7e:23:17:60:57:5d:ba:1e:
                    e2:06:5e:cb:cf:f2:57:f9:b4:36:df:15:36:5b:91:
                    24:1a:87:25:a8:dd:5e:7f:21:cf:8d:de:50:4c:13:
                    f0:c0:4f:63:3e:c3:04:13:60:af:ee:e9:39:a8:26:
                    ab:c6:2b:83:45:e0:0a:68:90:09:9a:34:fe:5c:99:
                    fb:eb:62:88:44:20:bd:b9:22:73:29:33:7d:21:c2:
                    02:21
                Exponent: 65537 (0x10001)
        X509v3 extensions:
            X509v3 Basic Constraints: 
                CA:FALSE
            Netscape Comment: 
                OpenSSL Generated Certificate
            X509v3 Subject Key Identifier: 
                87:D9:AC:86:CF:88:9F:E7:8D:AF:02:1D:2D:D4:35:08:19:DB:6E:FB
            X509v3 Authority Key Identifier: 
                keyid:CF:D2:55:62:D2:26:EF:CE:A2:B7:EA:E6:0F:05:6A:9C:E5:A0:EB:A3

    Signature Algorithm: sha256WithRSAEncryption
         50:b8:0c:01:e9:f4:b3:c6:23:4d:f4:78:9e:44:4a:51:4f:32:
         44:7d:c1:fa:8f:30:c3:66:f2:8c:9b:5d:f9:ed:04:8e:9c:17:
         02:40:9b:b8:17:98:2a:c2:e4:88:06:42:d0:46:5f:78:0a:85:
         91:9e:59:95:dc:c5:aa:64:0d:a7:80:aa:80:ad:41:92:58:4e:
         0d:d2:92:ab:a6:fd:06:42:df:c5:3b:fc:e0:8a:f4:c8:83:bd:
         5f:5a:9b:34:5a:46:81:7f:b7:a1:f2:3d:4c:28:af:53:ea:e8:
         9c:7e:f5:c9:24:4e:d0:3c:f5:6a:9d:ed:d0:69:76:fa:e3:3c:
         e9:83:fb:5d:f6:fd:8a:6a:dd:81:40:14:ca:e6:bd:3b:2e:6c:
         98:dd:3a:66:cd:f0:8d:45:83:18:46:c2:a1:45:59:12:6d:96:
         06:34:b7:2f:6b:0b:e5:06:58:ff:f8:f5:ad:15:88:a0:c1:da:
         f6:53:d8:6c:4a:f3:b3:e6:26:61:07:27:48:a3:3d:87:a9:bd:
         94:9b:3e:f2:cb:b8:04:04:1c:05:20:1f:02:4e:3a:8b:7c:75:
         8e:19:ee:5f:d0:45:ac:ff:77:74:0d:e1:9f:13:35:f5:1f:14:
         60:69:37:14:32:ed:b3:06:15:8f:93:e9:01:30:65:64:ac:6f:
         4d:71:d5:6e
-----BEGIN CERTIFICATE-----
MIIEGTCCAwGgAwIBAgICEAAwDQYJKoZIhvcNAQELBQAwgZgxCzAJBgNVBAYTAkJE
MQ4wDAYDVQQIDAVEaGFrYTEOMAwGA1UEBwwFRGhha2ExGTAXBgNVBAoMEERoYWth
IFVuaXZlcnNpdHkxDDAKBgNVBAsMA0NTRTEXMBUGA1UEAwwOc2VydmljZS5kdS5j
b20xJzAlBgkqhkiG9w0BCQEWGG1lc2JhaC5jc2VzdXN0QGdtYWlsLmNvbTAeFw0y
MjA2MjAwNjQyMTNaFw0yMzA2MjAwNjQyMTNaMIGIMQswCQYDVQQGEwJCRDEOMAwG
A1UECAwFRGhha2ExGTAXBgNVBAoMEERoYWthIFVuaXZlcnNpdHkxDDAKBgNVBAsM
A0NTRTEXMBUGA1UEAwwOc2VydmljZS5kdS5jb20xJzAlBgkqhkiG9w0BCQEWGG1l
c2JhaC5jc2VzdXN0QGdtYWlsLmNvbTCCASIwDQYJKoZIhvcNAQEBBQADggEPADCC
AQoCggEBANITrQmyF8aniTxi2X5COp9YUfylmmFKT31Zrc9BQ9jX+SyaOLRccHLe
eFI9RXmYCn0i0SXFGPtq+OmEwFlQh97pMR/tAbWDl/2fkGfrXT9SdchtN4RyUEFc
pUtjjiCwQmJ+hT0SvQC/UPP/qtzDKhsYrqHydOVETRkPqveKCiKugXOYXXMFTpg6
AglTEVYrjTHxzMxp2RuN8zrz6O1ZSpsvonOtqGVsKUODmn4jF2BXXboe4gZey8/y
V/m0Nt8VNluRJBqHJajdXn8hz43eUEwT8MBPYz7DBBNgr+7pOagmq8Yrg0XgCmiQ
CZo0/lyZ++tiiEQgvbkicykzfSHCAiECAwEAAaN7MHkwCQYDVR0TBAIwADAsBglg
hkgBhvhCAQ0EHxYdT3BlblNTTCBHZW5lcmF0ZWQgQ2VydGlmaWNhdGUwHQYDVR0O
BBYEFIfZrIbPiJ/nja8CHS3UNQgZ2277MB8GA1UdIwQYMBaAFM/SVWLSJu/Oorfq
5g8FapzloOujMA0GCSqGSIb3DQEBCwUAA4IBAQBQuAwB6fSzxiNN9HieREpRTzJE
fcH6jzDDZvKMm1357QSOnBcCQJu4F5gqwuSIBkLQRl94CoWRnlmV3MWqZA2ngKqA
rUGSWE4N0pKrpv0GQt/FO/zgivTIg71fWps0WkaBf7eh8j1MKK9T6uicfvXJJE7Q
PPVqne3QaXb64zzpg/td9v2Kat2BQBTK5r07LmyY3TpmzfCNRYMYRsKhRVkSbZYG
NLcvawvlBlj/+PWtFYigwdr2U9hsSvOz5iZhBydIoz2Hqb2Umz7yy7gEBBwFIB8C
TjqLfHWOGe5f0EWs/3d0DeGfEzX1HxRgaTcUMu2zBhWPk+kBMGVkrG9NcdVu
-----END CERTIFICATE-----
