Certificate:
    Data:
        Version: 3 (0x2)
        Serial Number: 4608 (0x1200)
        Signature Algorithm: sha256WithRSAEncryption
        Issuer: C=BD, ST=Dhaka, L=Dhaka, O=Dhaka University, OU=CSE, CN=sp2.du.com/emailAddress=mesbah.csesust@gmail.com
        Validity
            Not Before: Sep 19 19:06:08 2022 GMT
            Not After : Sep 19 19:06:08 2023 GMT
        Subject: C=BD, ST=Dhaka, O=Dhaka University, OU=CSE, CN=sp2.du.com/emailAddress=mesbah.csesust@gmail.com
        Subject Public Key Info:
            Public Key Algorithm: rsaEncryption
                RSA Public-Key: (2048 bit)
                Modulus:
                    00:e1:4a:00:2d:d1:9d:f8:f0:50:d9:22:2a:e0:58:
                    54:5c:f7:c8:b6:8f:52:66:10:56:27:c9:93:8a:f9:
                    76:93:72:2f:4c:e3:79:0b:c8:e8:51:db:a3:ab:ec:
                    c9:ed:3a:ed:a6:da:36:dc:91:3e:5e:fb:c9:5b:e5:
                    f9:e7:42:54:b4:4a:a3:3a:d4:06:d9:3a:7c:4a:4b:
                    99:e9:10:bb:62:98:c6:b0:4c:b5:ab:61:5b:55:c5:
                    b7:b2:c0:00:f5:aa:62:22:27:b6:7a:93:27:54:30:
                    8c:5c:b9:21:d7:ae:f8:95:7c:d8:b0:9e:4b:01:c3:
                    54:c0:38:f7:f7:15:88:cd:80:e7:c9:0a:54:e5:20:
                    85:78:5b:92:97:d7:53:0a:03:32:17:b8:79:d4:52:
                    04:6f:91:7a:6f:9e:b1:6a:9d:f7:d2:12:60:ef:b5:
                    90:c3:ce:10:98:78:cc:01:97:13:4a:53:9f:20:5f:
                    e0:0b:c9:97:cc:12:fb:31:67:c0:a9:f8:64:2f:d5:
                    61:0a:b5:d2:e6:f9:be:fd:26:01:ef:d7:3f:d2:9f:
                    3e:85:ab:48:94:64:bc:b8:1e:d9:ce:08:4e:6f:99:
                    10:ef:2f:a4:e2:18:23:8b:ee:cb:98:8e:eb:9c:9d:
                    2e:9b:17:0e:d6:69:99:79:aa:cf:bf:29:81:5a:1f:
                    10:f9
                Exponent: 65537 (0x10001)
        X509v3 extensions:
            X509v3 Basic Constraints: 
                CA:FALSE
            Netscape Comment: 
                OpenSSL Generated Certificate
            X509v3 Subject Key Identifier: 
                B4:F9:42:82:E2:8B:52:A4:84:A0:4C:DE:7B:43:DA:46:76:C4:59:26
            X509v3 Authority Key Identifier: 
                keyid:E8:9F:63:7E:41:94:0E:19:93:AC:1C:5F:6E:ED:49:80:80:84:51:0A

    Signature Algorithm: sha256WithRSAEncryption
         20:b3:cc:64:b3:6b:1d:28:a4:7d:d5:36:f5:bc:fd:10:fe:bd:
         d5:cc:7c:2e:de:68:88:1f:4f:a8:a6:0e:0d:15:fc:b1:4e:e8:
         be:39:6d:74:2f:d3:b9:d2:e5:91:8d:f3:64:9e:f2:fb:94:77:
         c3:7e:c0:a5:1e:b3:9b:03:29:db:8e:f9:ae:bc:b6:8e:0a:38:
         02:b7:54:39:ed:5d:1f:86:99:b6:c6:39:67:75:4f:44:93:87:
         7a:f0:bf:de:12:8e:0d:77:d7:6e:2b:24:b8:5c:74:0f:38:c9:
         e0:d0:66:3e:db:1d:db:2b:fa:19:b1:5d:cf:04:db:04:68:fe:
         51:43:b1:b0:0d:75:6d:00:46:20:90:84:0c:a6:de:84:b0:e8:
         e9:fa:79:f5:33:93:33:96:c1:91:1e:19:c7:8c:4a:5f:6f:70:
         f9:4c:03:60:75:f9:69:88:d2:4a:68:a8:8a:f6:26:d2:23:8b:
         82:44:eb:70:c7:57:27:c9:b3:ca:5c:8a:4a:e6:3d:64:90:b5:
         4f:1b:c1:04:c5:cf:76:43:3f:8b:cf:e5:9d:97:20:64:6a:50:
         17:bf:9f:3c:16:ef:61:8b:20:4a:1f:5b:d2:b6:ab:13:24:0c:
         27:23:7d:f8:5a:d0:ef:90:b1:b2:85:5a:7c:51:dc:c7:5b:f6:
         66:7c:2f:ba
-----BEGIN CERTIFICATE-----
MIIEETCCAvmgAwIBAgICEgAwDQYJKoZIhvcNAQELBQAwgZQxCzAJBgNVBAYTAkJE
MQ4wDAYDVQQIDAVEaGFrYTEOMAwGA1UEBwwFRGhha2ExGTAXBgNVBAoMEERoYWth
IFVuaXZlcnNpdHkxDDAKBgNVBAsMA0NTRTETMBEGA1UEAwwKc3AyLmR1LmNvbTEn
MCUGCSqGSIb3DQEJARYYbWVzYmFoLmNzZXN1c3RAZ21haWwuY29tMB4XDTIyMDkx
OTE5MDYwOFoXDTIzMDkxOTE5MDYwOFowgYQxCzAJBgNVBAYTAkJEMQ4wDAYDVQQI
DAVEaGFrYTEZMBcGA1UECgwQRGhha2EgVW5pdmVyc2l0eTEMMAoGA1UECwwDQ1NF
MRMwEQYDVQQDDApzcDIuZHUuY29tMScwJQYJKoZIhvcNAQkBFhhtZXNiYWguY3Nl
c3VzdEBnbWFpbC5jb20wggEiMA0GCSqGSIb3DQEBAQUAA4IBDwAwggEKAoIBAQDh
SgAt0Z348FDZIirgWFRc98i2j1JmEFYnyZOK+XaTci9M43kLyOhR26Or7MntOu2m
2jbckT5e+8lb5fnnQlS0SqM61AbZOnxKS5npELtimMawTLWrYVtVxbeywAD1qmIi
J7Z6kydUMIxcuSHXrviVfNiwnksBw1TAOPf3FYjNgOfJClTlIIV4W5KX11MKAzIX
uHnUUgRvkXpvnrFqnffSEmDvtZDDzhCYeMwBlxNKU58gX+ALyZfMEvsxZ8Cp+GQv
1WEKtdLm+b79JgHv1z/Snz6Fq0iUZLy4HtnOCE5vmRDvL6TiGCOL7suYjuucnS6b
Fw7WaZl5qs+/KYFaHxD5AgMBAAGjezB5MAkGA1UdEwQCMAAwLAYJYIZIAYb4QgEN
BB8WHU9wZW5TU0wgR2VuZXJhdGVkIENlcnRpZmljYXRlMB0GA1UdDgQWBBS0+UKC
4otSpISgTN57Q9pGdsRZJjAfBgNVHSMEGDAWgBTon2N+QZQOGZOsHF9u7UmAgIRR
CjANBgkqhkiG9w0BAQsFAAOCAQEAILPMZLNrHSikfdU29bz9EP691cx8Lt5oiB9P
qKYODRX8sU7ovjltdC/TudLlkY3zZJ7y+5R3w37ApR6zmwMp2475rry2jgo4ArdU
Oe1dH4aZtsY5Z3VPRJOHevC/3hKODXfXbiskuFx0DzjJ4NBmPtsd2yv6GbFdzwTb
BGj+UUOxsA11bQBGIJCEDKbehLDo6fp59TOTM5bBkR4Zx4xKX29w+UwDYHX5aYjS
SmioivYm0iOLgkTrcMdXJ8mzylyKSuY9ZJC1TxvBBMXPdkM/i8/lnZcgZGpQF7+f
PBbvYYsgSh9b0rarEyQMJyN9+FrQ75CxsoVafFHcx1v2Znwvug==
-----END CERTIFICATE-----
